target datalayout = "e-m:e-p270:32:32-p271:32:32-p272:64:64-i64:64-i128:128-f80:128-n8:16:32:64-S128"
target triple = "x86_64-pc-linux-gnu"

%struct.aeEventLoop = type { i32, i32, i64, i32, ptr, ptr, ptr, i32, ptr, ptr, ptr, i32, [2 x ptr] }

; Function Attrs: nounwind uwtable
define dso_local void @aeMain(ptr noundef %0) #0 {
  %2 = alloca ptr, align 8
  store ptr %0, ptr %2, align 8, !tbaa !9
  %3 = load ptr, ptr %2, align 8, !tbaa !9
  %4 = getelementptr inbounds nuw %struct.aeEventLoop, ptr %3, i32 0, i32 7
  store i32 0, ptr %4, align 8, !tbaa !23
  br label %5

5:                                                ; preds = %11, %1
  %6 = load ptr, ptr %2, align 8, !tbaa !9
  %7 = getelementptr inbounds nuw %struct.aeEventLoop, ptr %6, i32 0, i32 7
  %8 = load i32, ptr %7, align 8, !tbaa !23
  %9 = icmp ne i32 %8, 0
  %10 = xor i1 %9, true
  br i1 %10, label %11, label %14

11:                                               ; preds = %5
  %12 = load ptr, ptr %2, align 8, !tbaa !9
  %13 = call i32 @aeProcessEvents(ptr noundef %12, i32 noundef 27)
  br label %5, !llvm.loop !82

14:                                               ; preds = %5
  ret void
}