; Function Attrs: nounwind uwtable
define dso_local void @aeMain(ptr noundef initializes((48, 52)) %0) local_unnamed_addr #0 {
  %2 = getelementptr inbounds nuw i8, ptr %0, i64 48
  store i32 0, ptr %2, align 8, !tbaa !20
  br label %3

3:                                                ; preds = %1, %3
  %4 = tail call i32 @aeProcessEvents(ptr noundef nonnull %0, i32 noundef 27)
  %.pr = load i32, ptr %2, align 8, !tbaa !20
  %.not = icmp eq i32 %.pr, 0
  br i1 %.not, label %3, label %5, !llvm.loop !70

5:                                                ; preds = %3
  ret void
}